target datalayout = "e-m:e-p270:32:32-p271:32:32-p272:64:64-i64:64-i128:128-f80:128-n8:16:32:64-S128"
target triple = "x86_64-pc-linux-gnu"

@proto_register_prp.ett = internal global [1 x ptr] [ptr @ett_prp_redundancy_control_trailer], align 8
@.str.10 = private unnamed_addr constant [47 x i8] c"Parallel Redundancy Protocol (IEC62439 Part 3)\00", align 1
@.str.11 = private unnamed_addr constant [4 x i8] c"PRP\00", align 1
@.str.12 = private unnamed_addr constant [4 x i8] c"prp\00", align 1
@proto_prp = internal global i32 0, align 4
@.str.13 = private unnamed_addr constant [7 x i8] c"enable\00", align 1
@.str.14 = private unnamed_addr constant [12 x i8] c"eth.trailer\00", align 1
@.str.15 = private unnamed_addr constant [12 x i8] c"PRP Trailer\00", align 1
@.str.16 = private unnamed_addr constant [8 x i8] c"prp_eth\00", align 1

; Function Attrs: null_pointer_is_valid sspstrong uwtable
define hidden void @proto_register_prp() #0 {
  %1 = alloca ptr, align 8
  call void @llvm.lifetime.start.p0(i64 8, ptr %1) #4
  %2 = call i32 @proto_register_protocol(ptr noundef @.str.10, ptr noundef @.str.11, ptr noundef @.str.12)
  store i32 %2, ptr @proto_prp, align 4
  %3 = load i32, ptr @proto_prp, align 4
  %4 = call ptr @prefs_register_protocol_obsolete(i32 noundef %3)
  store ptr %4, ptr %1, align 8
  %5 = load ptr, ptr %1, align 8
  call void @prefs_register_obsolete_preference(ptr noundef %5, ptr noundef @.str.13)
  %6 = load i32, ptr @proto_prp, align 4
  call void @proto_register_field_array(i32 noundef %6, ptr noundef @proto_register_prp.hf, i32 noundef 5)
  call void @proto_register_subtree_array(ptr noundef @proto_register_prp.ett, i32 noundef 1)
  %7 = load i32, ptr @proto_prp, align 4
  call void @heur_dissector_add(ptr noundef @.str.14, ptr noundef @dissect_prp_redundancy_control_trailer_heur, ptr noundef @.str.15, ptr noundef @.str.16, i32 noundef %7, i32 noundef 1)
  call void @llvm.lifetime.end.p0(i64 8, ptr %1) #4
  ret void
}