; Function Attrs: null_pointer_is_valid sspstrong uwtable
define hidden void @proto_register_prp() local_unnamed_addr #0 {
  %1 = tail call i32 @proto_register_protocol(ptr noundef nonnull @.str.10, ptr noundef nonnull @.str.11, ptr noundef nonnull @.str.12)
  store i32 %1, ptr @proto_prp, align 4
  %2 = tail call ptr @prefs_register_protocol_obsolete(i32 noundef %1)
  tail call void @prefs_register_obsolete_preference(ptr noundef %2, ptr noundef nonnull @.str.13)
  %3 = load i32, ptr @proto_prp, align 4
  tail call void @proto_register_field_array(i32 noundef %3, ptr noundef nonnull @proto_register_prp.hf, i32 noundef 5)
  tail call void @proto_register_subtree_array(ptr noundef nonnull @proto_register_prp.ett, i32 noundef 1)
  %4 = load i32, ptr @proto_prp, align 4
  tail call void @heur_dissector_add(ptr noundef nonnull @.str.14, ptr noundef nonnull @dissect_prp_redundancy_control_trailer_heur, ptr noundef nonnull @.str.15, ptr noundef nonnull @.str.16, i32 noundef %4, i32 noundef 1)
  ret void
}